; Function Attrs: null_pointer_is_valid sspstrong uwtable
define internal range(i32 -268435456, 268435456) i32 @dissect_WarningMessageContents_PDU(ptr noundef %0, ptr noundef %1, ptr noundef %2, ptr readnone captures(none) %3) #0 {
  %5 = alloca ptr, align 8
  %6 = alloca %struct._asn1_ctx_t, align 8
  call void @llvm.lifetime.start.p0(i64 208, ptr nonnull %6) #12
  call void @asn1_ctx_init(ptr noundef nonnull %6, i32 noundef 1, i1 noundef zeroext true, ptr noundef %1)
  %7 = load i32, ptr @hf_ngap_WarningMessageContents_PDU, align 4
  call void @llvm.lifetime.start.p0(i64 8, ptr nonnull %5) #12
  store ptr null, ptr %5, align 8
  %8 = call i32 @dissect_per_octet_string(ptr noundef %0, i32 noundef 0, ptr noundef nonnull %6, ptr noundef %2, i32 noundef %7, i32 noundef 1, i32 noundef 9600, i1 noundef zeroext false, ptr noundef nonnull %5)
  %9 = load ptr, ptr %5, align 8
  %.not.i = icmp eq ptr %9, null
  br i1 %.not.i, label %dissect_ngap_WarningMessageContents.exit, label %10

10:                                               ; preds = %4
  %11 = getelementptr inbounds nuw i8, ptr %6, i64 16
  %12 = load ptr, ptr %11, align 8
  %13 = getelementptr inbounds nuw i8, ptr %12, i64 408
  %14 = load ptr, ptr %13, align 8
  %15 = load i32, ptr @proto_ngap, align 4
  %16 = call ptr @p_get_proto_data(ptr noundef %14, ptr noundef %12, i32 noundef %15, i32 noundef 0)
  %.not.i.i = icmp eq ptr %16, null
  br i1 %.not.i.i, label %17, label %ngap_get_private_data.exit.i

17:                                               ; preds = %10
  %18 = load ptr, ptr %13, align 8
  %19 = call noalias dereferenceable_or_null(72) ptr @wmem_alloc0(ptr noundef %18, i64 noundef 72) #13
  %20 = getelementptr inbounds nuw i8, ptr %19, i64 24
  store i32 -1, ptr %20, align 8
  %21 = getelementptr inbounds nuw i8, ptr %19, i64 56
  store i8 -1, ptr %21, align 8
  %22 = load ptr, ptr %13, align 8
  %23 = load i32, ptr @proto_ngap, align 4
  call void @p_add_proto_data(ptr noundef %22, ptr noundef %12, i32 noundef %23, i32 noundef 0, ptr noundef %19)
  br label %ngap_get_private_data.exit.i

ngap_get_private_data.exit.i:                     ; preds = %17, %10
  %.0.i.i = phi ptr [ %16, %10 ], [ %19, %17 ]
  %24 = getelementptr inbounds nuw i8, ptr %6, i64 24
  %25 = load ptr, ptr %24, align 8
  %26 = load i32, ptr @ett_ngap_WarningMessageContents, align 4
  %27 = call ptr @proto_item_add_subtree(ptr noundef %25, i32 noundef %26)
  %28 = load ptr, ptr %5, align 8
  %29 = load ptr, ptr %11, align 8
  %30 = getelementptr inbounds nuw i8, ptr %.0.i.i, i64 28
  %31 = load i8, ptr %30, align 4
  %32 = load i32, ptr @hf_ngap_WarningMessageContents_nb_pages, align 4
  %33 = load i32, ptr @hf_ngap_WarningMessageContents_decoded_page, align 4
  %34 = call zeroext i8 @tvb_get_uint8(ptr noundef %28, i32 noundef 0)
  %35 = zext i8 %34 to i32
  %36 = call ptr @proto_tree_add_uint(ptr noundef %27, i32 noundef %32, ptr noundef %28, i32 noundef 0, i32 noundef 1, i32 noundef %35)
  %37 = icmp ugt i8 %34, 15
  br i1 %37, label %.thread.i.i, label %39

.thread.i.i:                                      ; preds = %ngap_get_private_data.exit.i
  %38 = call ptr (ptr, ptr, ptr, ptr, ...) @expert_add_info_format(ptr noundef %29, ptr noundef %36, ptr noundef nonnull @ei_ngap_number_pages_le15, ptr noundef nonnull @.str.3581, i32 noundef %35)
  br label %.lr.ph.i.i

39:                                               ; preds = %ngap_get_private_data.exit.i
  %.not38.i.i = icmp eq i8 %34, 0
  br i1 %.not38.i.i, label %dissect_ngap_WarningMessageContents.exit, label %.lr.ph.i.i

.lr.ph.i.i:                                       ; preds = %39, %.thread.i.i
  %40 = phi i32 [ 15, %.thread.i.i ], [ %35, %39 ]
  %41 = getelementptr inbounds nuw i8, ptr %29, i64 408
  br label %42

42:                                               ; preds = %54, %.lr.ph.i.i
  %.037.i.i = phi i32 [ 0, %.lr.ph.i.i ], [ %.pre-phi.i.i, %54 ]
  %.03236.i.i = phi i32 [ 1, %.lr.ph.i.i ], [ %55, %54 ]
  %43 = add nuw nsw i32 %.03236.i.i, 82
  %44 = call zeroext i8 @tvb_get_uint8(ptr noundef %28, i32 noundef %43)
  %45 = zext i8 %44 to i32
  %46 = call ptr @tvb_new_subset_length(ptr noundef %28, i32 noundef %.03236.i.i, i32 noundef %45)
  %47 = call ptr @dissect_cbs_data(i8 noundef zeroext %31, ptr noundef %46, ptr noundef %27, ptr noundef %29, i32 noundef 0)
  %.not.i10.i = icmp eq ptr %47, null
  br i1 %.not.i10.i, label %._crit_edge39.i.i, label %48

._crit_edge39.i.i:                                ; preds = %42
  %.pre.i.i = add nuw nsw i32 %.037.i.i, 1
  br label %54

48:                                               ; preds = %42
  %49 = load ptr, ptr %41, align 8
  %50 = call i32 @tvb_reported_length(ptr noundef nonnull %47)
  %51 = call ptr @tvb_get_string_enc(ptr noundef %49, ptr noundef nonnull %47, i32 noundef 0, i32 noundef %50, i32 noundef 2)
  %52 = add nuw nsw i32 %.037.i.i, 1
  %53 = call ptr (ptr, i32, ptr, i32, i32, ptr, ptr, ...) @proto_tree_add_string_format(ptr noundef %27, i32 noundef %33, ptr noundef %28, i32 noundef %.03236.i.i, i32 noundef 83, ptr noundef %51, ptr noundef nonnull @.str.3582, i32 noundef %52, ptr noundef %51)
  br label %54

54:                                               ; preds = %48, %._crit_edge39.i.i
  %.pre-phi.i.i = phi i32 [ %.pre.i.i, %._crit_edge39.i.i ], [ %52, %48 ]
  %55 = add nuw nsw i32 %.03236.i.i, 83
  %exitcond.not.i.i = icmp eq i32 %.pre-phi.i.i, %40
  br i1 %exitcond.not.i.i, label %dissect_ngap_WarningMessageContents.exit, label %42, !llvm.loop !8

dissect_ngap_WarningMessageContents.exit:         ; preds = %54, %4, %39
  call void @llvm.lifetime.end.p0(i64 8, ptr nonnull %5) #12
  %56 = add i32 %8, 7
  %57 = ashr i32 %56, 3
  call void @llvm.lifetime.end.p0(i64 208, ptr nonnull %6) #12
  ret i32 %57
}